; Function Attrs: mustprogress nounwind uwtable
define dso_local void @_ZN4llvm16MCObjectStreamer16emitGPRel64ValueEPKNS_6MCExprE(ptr noundef nonnull align 8 captures(none) dereferenceable(424) %0, ptr noundef %1) unnamed_addr #0 align 2 {
  %3 = alloca %"class.llvm::MCFixup", align 8
  %4 = tail call noundef ptr @_ZN4llvm16MCObjectStreamer23getOrCreateDataFragmentEPKNS_15MCSubtargetInfoE(ptr noundef nonnull align 8 dereferenceable(424) %0, ptr noundef null)
  %5 = getelementptr inbounds nuw i8, ptr %4, i64 96
  %6 = getelementptr inbounds nuw i8, ptr %4, i64 40
  %7 = tail call noundef i64 @_ZNK4llvm15SmallVectorBaseImE4sizeEv(ptr noundef nonnull align 8 dereferenceable(24) %6) #20
  %8 = trunc i64 %7 to i32
  store ptr %1, ptr %3, align 8, !alias.scope !56
  %9 = getelementptr inbounds nuw i8, ptr %3, i64 8
  store i32 %8, ptr %9, align 8, !alias.scope !56
  %10 = getelementptr inbounds nuw i8, ptr %3, i64 12
  store i32 12, ptr %10, align 4, !alias.scope !56
  %11 = getelementptr inbounds nuw i8, ptr %3, i64 16
  store ptr null, ptr %11, align 8, !alias.scope !56
  call void @_ZN4llvm23SmallVectorTemplateBaseINS_7MCFixupELb1EE9push_backERKS1_(ptr noundef nonnull align 8 dereferenceable(16) %5, ptr noundef nonnull align 8 dereferenceable(24) %3)
  %12 = call noundef i64 @_ZNK4llvm15SmallVectorBaseImE4sizeEv(ptr noundef nonnull align 8 dereferenceable(24) %6) #20
  %13 = add i64 %12, 8
  call void @_ZN4llvm15SmallVectorImplIcE6resizeEmc(ptr noundef nonnull align 8 dereferenceable(24) %6, i64 noundef %13, i8 noundef signext 0)
  ret void
}